; Function Attrs: mustprogress uwtable
define dso_local void @_ZN4Luau7CodeGen3A6418AssemblyBuilderA647fjcvtzsENS1_11RegisterA64ES3_(ptr noundef nonnull align 8 dereferenceable(176) %0, i8 %1, i8 %2) local_unnamed_addr #0 align 2 {
  %4 = getelementptr inbounds nuw i8, ptr %0, i64 80
  %5 = load i8, ptr %4, align 8, !tbaa !14, !range !46, !noundef !47
  %6 = trunc nuw i8 %5 to i1
  br i1 %6, label %7, label %8

7:                                                ; preds = %3
  tail call void @_ZN4Luau7CodeGen3A6418AssemblyBuilderA643logEPKcNS1_11RegisterA64ES5_(ptr noundef nonnull align 8 dereferenceable(176) %0, ptr noundef nonnull @.str.74, i8 %1, i8 %2)
  br label %8

8:                                                ; preds = %7, %3
  %9 = and i8 %1, 7
  %10 = icmp eq i8 %9, 2
  %11 = and i8 %2, 7
  %12 = icmp eq i8 %11, 2
  %13 = select i1 %10, i1 true, i1 %12
  %14 = select i1 %13, i32 -2147483648, i32 0
  %15 = lshr i8 %1, 3
  %16 = zext nneg i8 %15 to i32
  %17 = lshr i8 %2, 3
  %18 = zext nneg i8 %17 to i32
  %19 = shl nuw nsw i32 %18, 5
  %20 = or disjoint i32 %19, %16
  %21 = or disjoint i32 %20, %14
  %22 = or disjoint i32 %21, 511574016
  %23 = getelementptr inbounds nuw i8, ptr %0, i64 160
  %24 = load ptr, ptr %23, align 8, !tbaa !39
  %25 = getelementptr inbounds nuw i8, ptr %24, i64 4
  store ptr %25, ptr %23, align 8, !tbaa !39
  store i32 %22, ptr %24, align 4, !tbaa !48
  %26 = getelementptr inbounds nuw i8, ptr %0, i64 168
  %27 = load ptr, ptr %26, align 8, !tbaa !40
  %28 = icmp eq ptr %27, %25
  br i1 %28, label %29, label %_ZN4Luau7CodeGen3A6418AssemblyBuilderA647placeR1EPKcNS1_11RegisterA64ES5_j.exit

29:                                               ; preds = %8
  tail call void @_ZN4Luau7CodeGen3A6418AssemblyBuilderA646extendEv(ptr noundef nonnull align 8 dereferenceable(176) %0)
  br label %_ZN4Luau7CodeGen3A6418AssemblyBuilderA647placeR1EPKcNS1_11RegisterA64ES5_j.exit

_ZN4Luau7CodeGen3A6418AssemblyBuilderA647placeR1EPKcNS1_11RegisterA64ES5_j.exit: ; preds = %8, %29
  ret void
}